; Function Attrs: nounwind uwtable
define internal fastcc ptr @create_Float(ptr noundef %0, float noundef %1) unnamed_addr #0 {
  %3 = alloca %union.jvalue, align 8
  store float %1, ptr %3, align 8
  %4 = load ptr, ptr %0, align 8
  %5 = getelementptr inbounds i8, ptr %4, i64 48
  %6 = load ptr, ptr %5, align 8
  %7 = tail call ptr %6(ptr noundef nonnull %0, ptr noundef nonnull @.str.195) #18
  %8 = icmp eq ptr %7, null
  br i1 %8, label %create_Object.exit, label %9

9:                                                ; preds = %2
  %10 = load ptr, ptr @create_Float.cid, align 8
  %11 = icmp eq ptr %10, null
  br i1 %11, label %12, label %18

12:                                               ; preds = %9
  %13 = load ptr, ptr %0, align 8
  %14 = getelementptr inbounds i8, ptr %13, i64 264
  %15 = load ptr, ptr %14, align 8
  %16 = tail call ptr %15(ptr noundef nonnull %0, ptr noundef nonnull %7, ptr noundef nonnull @.str.186, ptr noundef nonnull @.str.196) #18
  store ptr %16, ptr @create_Float.cid, align 8
  %17 = icmp eq ptr %16, null
  br i1 %17, label %.sink.split.i, label %18

18:                                               ; preds = %12, %9
  %19 = phi ptr [ %16, %12 ], [ %10, %9 ]
  %20 = load ptr, ptr %0, align 8
  %21 = getelementptr inbounds i8, ptr %20, i64 240
  %22 = load ptr, ptr %21, align 8
  %23 = call ptr %22(ptr noundef nonnull %0, ptr noundef nonnull %7, ptr noundef nonnull %19, ptr noundef nonnull %3) #18
  br label %.sink.split.i

.sink.split.i:                                    ; preds = %18, %12
  %.0.ph.i = phi ptr [ %23, %18 ], [ null, %12 ]
  %24 = load ptr, ptr %0, align 8
  %25 = getelementptr inbounds i8, ptr %24, i64 184
  %26 = load ptr, ptr %25, align 8
  call void %26(ptr noundef nonnull %0, ptr noundef nonnull %7) #18
  br label %create_Object.exit

create_Object.exit:                               ; preds = %2, %.sink.split.i
  %.0.i = phi ptr [ null, %2 ], [ %.0.ph.i, %.sink.split.i ]
  ret ptr %.0.i
}